	.cpu cortex-m0
	.eabi_attribute 20, 1
	.eabi_attribute 21, 1
	.eabi_attribute 23, 3
	.eabi_attribute 24, 1
	.eabi_attribute 25, 1
	.eabi_attribute 26, 1
	.eabi_attribute 30, 2
	.eabi_attribute 34, 0
	.eabi_attribute 18, 4
	.file	"thinkos_mutex.c"
	.text
.Ltext0:
	.cfi_sections	.debug_frame
	.section	.text.thinkos_mutex_lock_svc,"ax",%progbits
	.align	1
	.p2align 2,,3
	.global	thinkos_mutex_lock_svc
	.arch armv6s-m
	.syntax unified
	.code	16
	.thumb_func
	.fpu softvfp
	.type	thinkos_mutex_lock_svc, %function
thinkos_mutex_lock_svc:
.LVL0:
.LFB171:
	.file 1 "c:/devel/yard-ice/thinkos/sdk/libthinkos-krn/thinkos_mutex.c"
	.loc 1 33 1 view -0
	.cfi_startproc
	@ args = 0, pretend = 0, frame = 0
	@ frame_needed = 0, uses_anonymous_args = 0
	.loc 1 34 2 view .LVU1
	.loc 1 33 1 is_stmt 0 view .LVU2
	push	{r4, r5, r6, r7, lr}
	.cfi_def_cfa_offset 20
	.cfi_offset 4, -20
	.cfi_offset 5, -16
	.cfi_offset 6, -12
	.cfi_offset 7, -8
	.cfi_offset 14, -4
	mov	lr, r9
	mov	r7, r8
	.loc 1 34 23 view .LVU3
	ldr	r4, [r0]
.LVL1:
	.loc 1 35 2 is_stmt 1 view .LVU4
	.loc 1 33 1 is_stmt 0 view .LVU5
	push	{r7, lr}
	.cfi_def_cfa_offset 28
	.cfi_offset 8, -28
	.cfi_offset 9, -24
	.loc 1 35 15 view .LVU6
	subs	r3, r4, #2
.LVL2:
	.loc 1 38 2 is_stmt 1 view .LVU7
	.loc 1 38 5 is_stmt 0 view .LVU8
	cmp	r3, #31
	bhi	.L8
	.loc 1 45 2 is_stmt 1 view .LVU9
.LVL3:
.LBB66:
.LBI66:
	.file 2 "C:/devel/yard-ice/thinkos/sdk/include/arch/cortex-m3.h"
	.loc 2 1082 55 view .LVU10
.LBB67:
	.loc 2 1084 2 view .LVU11
	.loc 2 1085 2 view .LVU12
	.loc 2 1084 92 is_stmt 0 view .LVU13
	ldr	r2, .L12
	.loc 2 1085 17 view .LVU14
	lsls	r5, r3, #2
	lsls	r6, r2, #5
.LBE67:
.LBE66:
	.loc 1 45 5 view .LVU15
	ldr	r5, [r6, r5]
	cmp	r5, #0
	beq	.L9
	.loc 1 54 2 is_stmt 1 view .LVU16
	.loc 1 54 21 is_stmt 0 view .LVU17
	movs	r6, #210
	lsls	r6, r6, #2
	mov	ip, r6
	movs	r6, #0
	ldr	r5, .L12+4
	adds	r5, r2, r5
	adds	r3, r5, r3
.LVL4:
	.loc 1 54 21 view .LVU18
	add	r3, r3, ip
	ldrsb	r6, [r3, r6]
	.loc 1 54 5 view .LVU19
	adds	r7, r6, #1
	beq	.L10
	.loc 1 63 2 is_stmt 1 view .LVU20
	.loc 1 63 5 is_stmt 0 view .LVU21
	cmp	r6, r1
	beq	.L11
	.loc 1 71 2 is_stmt 1 view .LVU22
.LVL5:
.LBB68:
.LBI68:
	.file 3 "C:/devel/yard-ice/thinkos/sdk/include/thinkos/kernel.h"
	.loc 3 826 1 view .LVU23
.LBB69:
	.loc 3 828 2 view .LVU24
.LBB70:
.LBI70:
	.loc 2 1089 51 view .LVU25
.LBB71:
	.loc 2 1091 2 view .LVU26
	.loc 2 1092 2 view .LVU27
.LBE71:
.LBE70:
.LBE69:
.LBE68:
.LBB95:
.LBB96:
	.loc 3 758 12 is_stmt 0 view .LVU28
	movs	r3, #128
.LBE96:
.LBE95:
.LBB101:
.LBB88:
.LBB80:
.LBB72:
	.loc 2 1091 92 view .LVU29
	ldr	r6, .L12+8
.LBE72:
.LBE80:
.LBE88:
.LBE101:
.LBB102:
.LBB97:
	.loc 3 758 12 view .LVU30
	mov	r9, r3
.LBE97:
.LBE102:
.LBB103:
.LBB89:
.LBB81:
.LBB73:
	.loc 2 1092 16 view .LVU31
	subs	r3, r3, #127
	mov	ip, r3
.LBE73:
.LBE81:
	.loc 3 828 15 view .LVU32
	movs	r3, r4
.LBB82:
.LBB74:
	.loc 2 1091 92 view .LVU33
	mov	r8, r6
.LBE74:
.LBE82:
	.loc 3 828 15 view .LVU34
	adds	r3, r3, #74
.LBE89:
.LBE103:
.LBB104:
.LBB105:
.LBB106:
.LBB107:
	.loc 2 1091 92 view .LVU35
	ldr	r6, .L12+12
.LBE107:
.LBE106:
.LBE105:
.LBE104:
.LBB120:
.LBB90:
.LBB83:
.LBB75:
	add	r8, r8, r2
	lsls	r3, r3, #2
	add	r3, r3, r8
.LBE75:
.LBE83:
.LBE90:
.LBE120:
.LBB121:
.LBB116:
.LBB112:
.LBB108:
	mov	r8, r6
.LBE108:
.LBE112:
.LBE116:
.LBE121:
.LBB122:
.LBB91:
.LBB84:
.LBB76:
	.loc 2 1092 10 view .LVU36
	lsls	r6, r1, #2
.LBE76:
.LBE84:
	.loc 3 830 25 view .LVU37
	adds	r1, r1, #65
.LVL6:
	.loc 3 830 25 view .LVU38
	adds	r1, r1, #255
.LVL7:
	.loc 3 830 25 view .LVU39
	lsls	r1, r1, #1
.LVL8:
	.loc 3 830 25 view .LVU40
	adds	r1, r5, r1
.LBE91:
.LBE122:
.LBB123:
.LBB98:
	.loc 3 758 12 view .LVU41
	mov	r5, r9
	lsls	r5, r5, #21
.LBE98:
.LBE123:
	.loc 1 74 9 view .LVU42
	movs	r7, #0
.LBB124:
.LBB99:
	.loc 3 758 12 view .LVU43
	mov	r9, r5
.LBE99:
.LBE124:
.LBB125:
.LBB92:
.LBB85:
.LBB77:
	.loc 2 1092 16 view .LVU44
	movs	r5, r6
	mov	r6, ip
.LBE77:
.LBE85:
.LBE92:
.LBE125:
.LBB126:
.LBB117:
.LBB113:
.LBB109:
	.loc 2 1091 92 view .LVU45
	add	r2, r2, r8
.LBE109:
.LBE113:
.LBE117:
.LBE126:
.LBB127:
.LBB93:
	.loc 3 830 30 view .LVU46
	lsls	r4, r4, #1
.LVL9:
.LBB86:
.LBB78:
	.loc 2 1092 16 view .LVU47
	lsls	r3, r3, #5
.LBE78:
.LBE86:
.LBE93:
.LBE127:
.LBB128:
.LBB118:
.LBB114:
.LBB110:
	lsls	r2, r2, #5
.LBE110:
.LBE114:
.LBE118:
.LBE128:
.LBB129:
.LBB94:
.LBB87:
.LBB79:
	str	r6, [r3, r5]
.LVL10:
	.loc 2 1092 16 view .LVU48
.LBE79:
.LBE87:
	.loc 3 830 2 is_stmt 1 view .LVU49
	.loc 3 830 25 is_stmt 0 view .LVU50
	strh	r4, [r1, #4]
.LVL11:
	.loc 3 830 25 view .LVU51
.LBE94:
.LBE129:
	.loc 1 72 2 is_stmt 1 view .LVU52
	.loc 1 74 2 view .LVU53
	.loc 1 74 9 is_stmt 0 view .LVU54
	str	r7, [r0]
	.loc 1 77 2 is_stmt 1 view .LVU55
.LVL12:
.LBB130:
.LBI104:
	.loc 3 787 51 view .LVU56
.LBB119:
	.loc 3 790 2 view .LVU57
.LBB115:
.LBI106:
	.loc 2 1089 51 view .LVU58
.LBB111:
	.loc 2 1091 2 view .LVU59
	.loc 2 1092 2 view .LVU60
	.loc 2 1092 16 is_stmt 0 view .LVU61
	str	r7, [r2, r5]
.LVL13:
	.loc 2 1092 16 view .LVU62
.LBE111:
.LBE115:
.LBE119:
.LBE130:
	.loc 1 79 2 is_stmt 1 view .LVU63
.LBB131:
.LBI95:
	.loc 3 755 51 view .LVU64
.LBB100:
	.loc 3 756 2 view .LVU65
	.loc 3 758 2 view .LVU66
	.loc 3 758 12 is_stmt 0 view .LVU67
	mov	r2, r9
	ldr	r3, .L12+16
	str	r2, [r3, #4]
	.loc 3 759 2 is_stmt 1 view .LVU68
	.syntax divided
@ 759 "C:/devel/yard-ice/thinkos/sdk/include/thinkos/kernel.h" 1
	dsb

@ 0 "" 2
.LVL14:
	.thumb
	.syntax unified
.L1:
	.loc 3 759 2 is_stmt 0 view .LVU69
.LBE100:
.LBE131:
	.loc 1 80 1 view .LVU70
	@ sp needed
	pop	{r2, r3}
	mov	r8, r2
	mov	r9, r3
	pop	{r4, r5, r6, r7, pc}
.LVL15:
.L9:
	.loc 1 46 3 is_stmt 1 view .LVU71
	.loc 1 47 3 view .LVU72
	.syntax divided
@ 47 "c:/devel/yard-ice/thinkos/sdk/libthinkos-krn/thinkos_mutex.c" 1
	nop
bkpt #137

@ 0 "" 2
	.loc 1 48 3 view .LVU73
	.loc 1 48 10 is_stmt 0 view .LVU74
	.thumb
	.syntax unified
	movs	r3, #3
.LVL16:
	.loc 1 48 10 view .LVU75
	rsbs	r3, r3, #0
	str	r3, [r0]
	.loc 1 49 3 is_stmt 1 view .LVU76
	b	.L1
.LVL17:
.L8:
	.loc 1 39 3 view .LVU77
	.loc 1 40 3 view .LVU78
	.syntax divided
@ 40 "c:/devel/yard-ice/thinkos/sdk/libthinkos-krn/thinkos_mutex.c" 1
	nop
bkpt #136

@ 0 "" 2
	.loc 1 41 3 view .LVU79
	.loc 1 41 10 is_stmt 0 view .LVU80
	.thumb
	.syntax unified
	movs	r3, #3
.LVL18:
	.loc 1 41 10 view .LVU81
	rsbs	r3, r3, #0
	str	r3, [r0]
	.loc 1 42 3 is_stmt 1 view .LVU82
	b	.L1
.L10:
	.loc 1 55 3 view .LVU83
	.loc 1 57 10 is_stmt 0 view .LVU84
	movs	r2, #0
	.loc 1 55 26 view .LVU85
	strb	r1, [r3]
	.loc 1 56 3 is_stmt 1 view .LVU86
	.loc 1 57 3 view .LVU87
	.loc 1 57 10 is_stmt 0 view .LVU88
	str	r2, [r0]
	.loc 1 58 3 is_stmt 1 view .LVU89
	b	.L1
.L11:
	.loc 1 64 3 view .LVU90
	.loc 1 65 3 view .LVU91
	.syntax divided
@ 65 "c:/devel/yard-ice/thinkos/sdk/libthinkos-krn/thinkos_mutex.c" 1
	nop
bkpt #139

@ 0 "" 2
	.loc 1 66 3 view .LVU92
	.loc 1 66 10 is_stmt 0 view .LVU93
	.thumb
	.syntax unified
	movs	r3, #5
	rsbs	r3, r3, #0
	str	r3, [r0]
	.loc 1 67 3 is_stmt 1 view .LVU94
	b	.L1
.L13:
	.align	2
.L12:
	.word	thinkos_rt+17826700
	.word	-17826700
	.word	-908
	.word	-612
	.word	-536810240
	.cfi_endproc
.LFE171:
	.size	thinkos_mutex_lock_svc, .-thinkos_mutex_lock_svc
	.section	.text.thinkos_mutex_trylock_svc,"ax",%progbits
	.align	1
	.p2align 2,,3
	.global	thinkos_mutex_trylock_svc
	.syntax unified
	.code	16
	.thumb_func
	.fpu softvfp
	.type	thinkos_mutex_trylock_svc, %function
thinkos_mutex_trylock_svc:
.LVL19:
.LFB172:
	.loc 1 83 1 view -0
	.cfi_startproc
	@ args = 0, pretend = 0, frame = 0
	@ frame_needed = 0, uses_anonymous_args = 0
	.loc 1 84 2 view .LVU96
	.loc 1 85 2 view .LVU97
	.loc 1 85 15 is_stmt 0 view .LVU98
	ldr	r3, [r0]
	.loc 1 83 1 view .LVU99
	push	{r4, r5, lr}
	.cfi_def_cfa_offset 12
	.cfi_offset 4, -12
	.cfi_offset 5, -8
	.cfi_offset 14, -4
	.loc 1 85 15 view .LVU100
	subs	r3, r3, #2
.LVL20:
	.loc 1 88 2 is_stmt 1 view .LVU101
	.loc 1 88 5 is_stmt 0 view .LVU102
	cmp	r3, #31
	bhi	.L20
	.loc 1 95 2 is_stmt 1 view .LVU103
.LVL21:
.LBB132:
.LBI132:
	.loc 2 1082 55 view .LVU104
.LBB133:
	.loc 2 1084 2 view .LVU105
	.loc 2 1085 2 view .LVU106
	.loc 2 1084 92 is_stmt 0 view .LVU107
	ldr	r2, .L24
	.loc 2 1085 17 view .LVU108
	lsls	r4, r3, #2
	lsls	r5, r2, #5
.LBE133:
.LBE132:
	.loc 1 95 5 view .LVU109
	ldr	r4, [r5, r4]
	cmp	r4, #0
	beq	.L21
	.loc 1 104 2 is_stmt 1 view .LVU110
	.loc 1 104 21 is_stmt 0 view .LVU111
	adds	r2, r2, r3
	ldr	r3, .L24+4
.LVL22:
	.loc 1 104 21 view .LVU112
	mov	ip, r3
	movs	r3, #0
	add	r2, r2, ip
	ldrsb	r3, [r2, r3]
	.loc 1 104 5 view .LVU113
	adds	r4, r3, #1
	beq	.L22
	.loc 1 110 3 is_stmt 1 view .LVU114
	.loc 1 110 6 is_stmt 0 view .LVU115
	cmp	r3, r1
	beq	.L23
	.loc 1 117 4 is_stmt 1 view .LVU116
	.loc 1 118 4 view .LVU117
	.loc 1 118 11 is_stmt 0 view .LVU118
	movs	r3, #4
	rsbs	r3, r3, #0
	str	r3, [r0]
.LVL23:
	.loc 1 118 11 view .LVU119
	b	.L14
.LVL24:
.L21:
	.loc 1 96 3 is_stmt 1 view .LVU120
	.loc 1 97 3 view .LVU121
	.syntax divided
@ 97 "c:/devel/yard-ice/thinkos/sdk/libthinkos-krn/thinkos_mutex.c" 1
	nop
bkpt #137

@ 0 "" 2
	.loc 1 98 3 view .LVU122
	.loc 1 98 10 is_stmt 0 view .LVU123
	.thumb
	.syntax unified
	movs	r3, #3
.LVL25:
	.loc 1 98 10 view .LVU124
	rsbs	r3, r3, #0
	str	r3, [r0]
.LVL26:
	.loc 1 99 3 is_stmt 1 view .LVU125
.L14:
	.loc 1 121 1 is_stmt 0 view .LVU126
	@ sp needed
	pop	{r4, r5, pc}
.LVL27:
.L20:
	.loc 1 89 3 is_stmt 1 view .LVU127
	.loc 1 90 3 view .LVU128
	.syntax divided
@ 90 "c:/devel/yard-ice/thinkos/sdk/libthinkos-krn/thinkos_mutex.c" 1
	nop
bkpt #136

@ 0 "" 2
	.loc 1 91 3 view .LVU129
	.loc 1 91 10 is_stmt 0 view .LVU130
	.thumb
	.syntax unified
	movs	r3, #3
.LVL28:
	.loc 1 91 10 view .LVU131
	rsbs	r3, r3, #0
	str	r3, [r0]
.LVL29:
	.loc 1 92 3 is_stmt 1 view .LVU132
	b	.L14
.LVL30:
.L23:
	.loc 1 111 4 view .LVU133
	.loc 1 112 4 view .LVU134
	.syntax divided
@ 112 "c:/devel/yard-ice/thinkos/sdk/libthinkos-krn/thinkos_mutex.c" 1
	nop
bkpt #139

@ 0 "" 2
	.loc 1 113 4 view .LVU135
	.loc 1 113 11 is_stmt 0 view .LVU136
	.thumb
	.syntax unified
	movs	r3, #5
	rsbs	r3, r3, #0
	str	r3, [r0]
.LVL31:
	.loc 1 113 11 view .LVU137
	b	.L14
.LVL32:
.L22:
	.loc 1 105 3 is_stmt 1 view .LVU138
	.loc 1 106 3 view .LVU139
	.loc 1 107 10 is_stmt 0 view .LVU140
	movs	r3, #0
	.loc 1 106 26 view .LVU141
	strb	r1, [r2]
.LVL33:
	.loc 1 107 3 is_stmt 1 view .LVU142
	.loc 1 107 10 is_stmt 0 view .LVU143
	str	r3, [r0]
	b	.L14
.L25:
	.align	2
.L24:
	.word	thinkos_rt+17826700
	.word	-17825860
	.cfi_endproc
.LFE172:
	.size	thinkos_mutex_trylock_svc, .-thinkos_mutex_trylock_svc
	.section	.text.thinkos_mutex_timedlock_svc,"ax",%progbits
	.align	1
	.p2align 2,,3
	.global	thinkos_mutex_timedlock_svc
	.syntax unified
	.code	16
	.thumb_func
	.fpu softvfp
	.type	thinkos_mutex_timedlock_svc, %function
thinkos_mutex_timedlock_svc:
.LVL34:
.LFB173:
	.loc 1 125 1 is_stmt 1 view -0
	.cfi_startproc
	@ args = 0, pretend = 0, frame = 0
	@ frame_needed = 0, uses_anonymous_args = 0
	.loc 1 126 2 view .LVU145
	.loc 1 125 1 is_stmt 0 view .LVU146
	push	{r4, r5, r6, r7, lr}
	.cfi_def_cfa_offset 20
	.cfi_offset 4, -20
	.cfi_offset 5, -16
	.cfi_offset 6, -12
	.cfi_offset 7, -8
	.cfi_offset 14, -4
	mov	lr, fp
	mov	r7, r10
	mov	r6, r9
	mov	r5, r8
	.loc 1 126 23 view .LVU147
	ldr	r2, [r0]
.LVL35:
	.loc 1 127 2 is_stmt 1 view .LVU148
	.loc 1 128 2 view .LVU149
	.loc 1 125 1 is_stmt 0 view .LVU150
	push	{r5, r6, r7, lr}
	.cfi_def_cfa_offset 36
	.cfi_offset 8, -36
	.cfi_offset 9, -32
	.cfi_offset 10, -28
	.cfi_offset 11, -24
	.loc 1 128 15 view .LVU151
	subs	r3, r2, #2
.LVL36:
	.loc 1 131 2 is_stmt 1 view .LVU152
	.loc 1 131 5 is_stmt 0 view .LVU153
	cmp	r3, #31
	bhi	.L32
	.loc 1 138 2 is_stmt 1 view .LVU154
.LVL37:
.LBB134:
.LBI134:
	.loc 2 1082 55 view .LVU155
.LBB135:
	.loc 2 1084 2 view .LVU156
	.loc 2 1085 2 view .LVU157
	.loc 2 1084 92 is_stmt 0 view .LVU158
	ldr	r7, .L36
	.loc 2 1085 17 view .LVU159
	lsls	r4, r3, #2
	lsls	r5, r7, #5
.LBE135:
.LBE134:
	.loc 1 138 5 view .LVU160
	ldr	r4, [r5, r4]
	cmp	r4, #0
	beq	.L33
	.loc 1 147 2 is_stmt 1 view .LVU161
	.loc 1 147 21 is_stmt 0 view .LVU162
	movs	r5, #210
	lsls	r5, r5, #2
	mov	ip, r5
	movs	r5, #0
	ldr	r4, .L36+4
	adds	r4, r7, r4
	adds	r3, r4, r3
.LVL38:
	.loc 1 147 21 view .LVU163
	add	r3, r3, ip
	ldrsb	r5, [r3, r5]
	.loc 1 147 5 view .LVU164
	adds	r6, r5, #1
	beq	.L34
	.loc 1 156 2 is_stmt 1 view .LVU165
	.loc 1 156 5 is_stmt 0 view .LVU166
	cmp	r5, r1
	beq	.L35
	.loc 1 164 2 is_stmt 1 view .LVU167
.LVL39:
.LBB136:
.LBI136:
	.loc 3 836 1 view .LVU168
.LBB137:
	.loc 3 838 2 view .LVU169
.LBE137:
.LBE136:
	.loc 1 169 9 is_stmt 0 view .LVU170
	movs	r5, #1
	mov	ip, r5
.LBB172:
.LBB164:
	.loc 3 838 42 view .LVU171
	ldr	r6, [r0, #4]
.LBB138:
.LBB139:
	.loc 2 1092 16 view .LVU172
	mov	r9, r5
.LBE139:
.LBE138:
	.loc 3 838 42 view .LVU173
	mov	r8, r6
.LBE164:
.LBE172:
.LBB173:
.LBB174:
	.loc 3 758 12 view .LVU174
	adds	r5, r5, #127
.LBE174:
.LBE173:
	.loc 1 169 9 view .LVU175
	mov	r6, ip
.LBB180:
.LBB175:
	.loc 3 758 12 view .LVU176
	mov	fp, r5
.LBE175:
.LBE180:
.LBB181:
.LBB165:
	.loc 3 838 35 view .LVU177
	movs	r3, #177
.LBE165:
.LBE181:
	.loc 1 169 9 view .LVU178
	rsbs	r6, r6, #0
	mov	ip, r6
.LBB182:
.LBB176:
	.loc 3 758 12 view .LVU179
	mov	r6, fp
.LBE176:
.LBE182:
.LBB183:
.LBB184:
.LBB185:
.LBB186:
	.loc 2 1092 16 view .LVU180
	movs	r5, #0
.LBE186:
.LBE185:
.LBE184:
.LBE183:
.LBB199:
.LBB166:
	.loc 3 838 35 view .LVU181
	lsls	r3, r3, #2
	.loc 3 838 42 view .LVU182
	ldr	r3, [r4, r3]
.LBE166:
.LBE199:
.LBB200:
.LBB177:
	.loc 3 758 12 view .LVU183
	lsls	r6, r6, #21
.LBE177:
.LBE200:
.LBB201:
.LBB167:
	.loc 3 838 42 view .LVU184
	add	r8, r8, r3
	.loc 3 838 23 view .LVU185
	movs	r3, r1
.LBE167:
.LBE201:
.LBB202:
.LBB178:
	.loc 3 758 12 view .LVU186
	mov	fp, r6
.LBE178:
.LBE202:
.LBB203:
.LBB168:
	.loc 3 838 23 view .LVU187
	mov	r6, r8
.LBE168:
.LBE203:
.LBB204:
.LBB195:
.LBB191:
.LBB187:
	.loc 2 1092 16 view .LVU188
	mov	r10, r5
.LBE187:
.LBE191:
.LBE195:
.LBE204:
.LBB205:
.LBB169:
	.loc 3 842 15 view .LVU189
	movs	r5, r2
	.loc 3 838 23 view .LVU190
	adds	r3, r3, #176
	lsls	r3, r3, #2
	adds	r3, r4, r3
	str	r6, [r3, #8]
.LVL40:
.LBB147:
.LBB148:
	.loc 2 1091 92 view .LVU191
	ldr	r3, .L36+8
.LBE148:
.LBE147:
	.loc 3 842 15 view .LVU192
	adds	r5, r5, #74
.LBB153:
.LBB149:
	.loc 2 1091 92 view .LVU193
	adds	r3, r7, r3
	lsls	r5, r5, #2
.LBE149:
.LBE153:
	.loc 3 840 2 is_stmt 1 view .LVU194
.LVL41:
.LBB154:
.LBI138:
	.loc 2 1089 51 view .LVU195
.LBB140:
	.loc 2 1091 2 view .LVU196
	.loc 2 1092 2 view .LVU197
.LBE140:
.LBE154:
.LBB155:
.LBB150:
	.loc 2 1091 92 is_stmt 0 view .LVU198
	adds	r5, r5, r3
.LBE150:
.LBE155:
.LBB156:
.LBB141:
	ldr	r3, .L36+12
.LBE141:
.LBE156:
	.loc 3 845 31 view .LVU199
	lsls	r2, r2, #1
.LVL42:
.LBB157:
.LBB142:
	.loc 2 1091 92 view .LVU200
	mov	r8, r3
	add	r8, r8, r7
	.loc 2 1092 16 view .LVU201
	mov	r6, r8
.LBE142:
.LBE157:
.LBE169:
.LBE205:
.LBB206:
.LBB196:
.LBB192:
.LBB188:
	.loc 2 1091 92 view .LVU202
	ldr	r3, .L36+16
.LBE188:
.LBE192:
.LBE196:
.LBE206:
.LBB207:
.LBB170:
.LBB158:
.LBB143:
	.loc 2 1092 16 view .LVU203
	lsls	r6, r6, #5
.LBE143:
.LBE158:
.LBE170:
.LBE207:
.LBB208:
.LBB197:
.LBB193:
.LBB189:
	.loc 2 1091 92 view .LVU204
	adds	r3, r7, r3
.LBE189:
.LBE193:
.LBE197:
.LBE208:
.LBB209:
.LBB171:
.LBB159:
.LBB144:
	.loc 2 1092 10 view .LVU205
	lsls	r7, r1, #2
.LBE144:
.LBE159:
	.loc 3 845 25 view .LVU206
	adds	r1, r1, #65
.LVL43:
	.loc 3 845 25 view .LVU207
	adds	r1, r1, #255
.LVL44:
	.loc 3 845 25 view .LVU208
	lsls	r1, r1, #1
.LVL45:
	.loc 3 845 25 view .LVU209
	adds	r1, r4, r1
.LBB160:
.LBB145:
	.loc 2 1092 16 view .LVU210
	movs	r4, r6
	mov	r6, r9
.LBE145:
.LBE160:
	.loc 3 845 37 view .LVU211
	adds	r2, r2, #1
.LBB161:
.LBB151:
	.loc 2 1092 16 view .LVU212
	lsls	r5, r5, #5
.LBE151:
.LBE161:
.LBB162:
.LBB146:
	str	r6, [r4, r7]
.LVL46:
	.loc 2 1092 16 view .LVU213
.LBE146:
.LBE162:
	.loc 3 842 2 is_stmt 1 view .LVU214
.LBB163:
.LBI147:
	.loc 2 1089 51 view .LVU215
.LBB152:
	.loc 2 1091 2 view .LVU216
	.loc 2 1092 2 view .LVU217
	.loc 2 1092 16 is_stmt 0 view .LVU218
	str	r6, [r5, r7]
.LVL47:
	.loc 2 1092 16 view .LVU219
.LBE152:
.LBE163:
	.loc 3 845 2 is_stmt 1 view .LVU220
	.loc 3 845 25 is_stmt 0 view .LVU221
	strh	r2, [r1, #4]
.LVL48:
	.loc 3 845 25 view .LVU222
.LBE171:
.LBE209:
	.loc 1 165 2 is_stmt 1 view .LVU223
	.loc 1 169 2 view .LVU224
	.loc 1 169 9 is_stmt 0 view .LVU225
	mov	r2, ip
	str	r2, [r0]
	.loc 1 172 2 is_stmt 1 view .LVU226
.LVL49:
.LBB210:
.LBI183:
	.loc 3 787 51 view .LVU227
.LBB198:
	.loc 3 790 2 view .LVU228
.LBB194:
.LBI185:
	.loc 2 1089 51 view .LVU229
.LBB190:
	.loc 2 1091 2 view .LVU230
	.loc 2 1092 2 view .LVU231
	.loc 2 1092 16 is_stmt 0 view .LVU232
	mov	r2, r10
	lsls	r3, r3, #5
	str	r2, [r3, r7]
.LVL50:
	.loc 2 1092 16 view .LVU233
.LBE190:
.LBE194:
.LBE198:
.LBE210:
	.loc 1 174 2 is_stmt 1 view .LVU234
.LBB211:
.LBI173:
	.loc 3 755 51 view .LVU235
.LBB179:
	.loc 3 756 2 view .LVU236
	.loc 3 758 2 view .LVU237
	.loc 3 758 12 is_stmt 0 view .LVU238
	mov	r3, fp
	ldr	r4, .L36+20
	str	r3, [r4, #4]
	.loc 3 759 2 is_stmt 1 view .LVU239
	.syntax divided
@ 759 "C:/devel/yard-ice/thinkos/sdk/include/thinkos/kernel.h" 1
	dsb

@ 0 "" 2
.LVL51:
	.thumb
	.syntax unified
.L26:
	.loc 3 759 2 is_stmt 0 view .LVU240
.LBE179:
.LBE211:
	.loc 1 176 1 view .LVU241
	@ sp needed
	pop	{r2, r3, r4, r5}
	mov	r8, r2
	mov	r9, r3
	mov	r10, r4
	mov	fp, r5
	pop	{r4, r5, r6, r7, pc}
.LVL52:
.L33:
	.loc 1 139 3 is_stmt 1 view .LVU242
	.loc 1 140 3 view .LVU243
	.syntax divided
@ 140 "c:/devel/yard-ice/thinkos/sdk/libthinkos-krn/thinkos_mutex.c" 1
	nop
bkpt #137

@ 0 "" 2
	.loc 1 141 3 view .LVU244
	.loc 1 141 10 is_stmt 0 view .LVU245
	.thumb
	.syntax unified
	movs	r3, #3
.LVL53:
	.loc 1 141 10 view .LVU246
	rsbs	r3, r3, #0
	str	r3, [r0]
	.loc 1 142 3 is_stmt 1 view .LVU247
	b	.L26
.LVL54:
.L32:
	.loc 1 132 3 view .LVU248
	.loc 1 133 3 view .LVU249
	.syntax divided
@ 133 "c:/devel/yard-ice/thinkos/sdk/libthinkos-krn/thinkos_mutex.c" 1
	nop
bkpt #136

@ 0 "" 2
	.loc 1 134 3 view .LVU250
	.loc 1 134 10 is_stmt 0 view .LVU251
	.thumb
	.syntax unified
	movs	r3, #3
.LVL55:
	.loc 1 134 10 view .LVU252
	rsbs	r3, r3, #0
	str	r3, [r0]
	.loc 1 135 3 is_stmt 1 view .LVU253
	b	.L26
.L34:
	.loc 1 148 3 view .LVU254
	.loc 1 150 10 is_stmt 0 view .LVU255
	movs	r2, #0
.LVL56:
	.loc 1 148 26 view .LVU256
	strb	r1, [r3]
.LVL57:
	.loc 1 149 3 is_stmt 1 view .LVU257
	.loc 1 150 3 view .LVU258
	.loc 1 150 10 is_stmt 0 view .LVU259
	str	r2, [r0]
	.loc 1 151 3 is_stmt 1 view .LVU260
	b	.L26
.LVL58:
.L35:
	.loc 1 157 3 view .LVU261
	.syntax divided
@ 157 "c:/devel/yard-ice/thinkos/sdk/libthinkos-krn/thinkos_mutex.c" 1
	nop
bkpt #139

@ 0 "" 2
	.loc 1 158 3 view .LVU262
	.loc 1 158 10 is_stmt 0 view .LVU263
	.thumb
	.syntax unified
	movs	r3, #5
	rsbs	r3, r3, #0
	str	r3, [r0]
	.loc 1 159 3 is_stmt 1 view .LVU264
	b	.L26
.L37:
	.align	2
.L36:
	.word	thinkos_rt+17826700
	.word	-17826700
	.word	-908
	.word	-608
	.word	-612
	.word	-536810240
	.cfi_endproc
.LFE173:
	.size	thinkos_mutex_timedlock_svc, .-thinkos_mutex_timedlock_svc
	.section	.text.thinkos_mutex_unlock_svc,"ax",%progbits
	.align	1
	.p2align 2,,3
	.global	thinkos_mutex_unlock_svc
	.syntax unified
	.code	16
	.thumb_func
	.fpu softvfp
	.type	thinkos_mutex_unlock_svc, %function
thinkos_mutex_unlock_svc:
.LVL59:
.LFB174:
	.loc 1 180 1 view -0
	.cfi_startproc
	@ args = 0, pretend = 0, frame = 0
	@ frame_needed = 0, uses_anonymous_args = 0
	.loc 1 181 2 view .LVU266
	.loc 1 180 1 is_stmt 0 view .LVU267
	push	{r4, r5, r6, r7, lr}
	.cfi_def_cfa_offset 20
	.cfi_offset 4, -20
	.cfi_offset 5, -16
	.cfi_offset 6, -12
	.cfi_offset 7, -8
	.cfi_offset 14, -4
	mov	lr, r9
	mov	r7, r8
	.loc 1 181 15 view .LVU268
	ldr	r2, [r0]
.LVL60:
	.loc 1 182 2 is_stmt 1 view .LVU269
	.loc 1 180 1 is_stmt 0 view .LVU270
	push	{r7, lr}
	.cfi_def_cfa_offset 28
	.cfi_offset 8, -28
	.cfi_offset 9, -24
	.loc 1 182 15 view .LVU271
	subs	r3, r2, #2
.LVL61:
	.loc 1 183 2 is_stmt 1 view .LVU272
	.loc 1 186 2 view .LVU273
	.loc 1 186 5 is_stmt 0 view .LVU274
	cmp	r3, #31
	bhi	.L44
	.loc 1 193 2 is_stmt 1 view .LVU275
.LVL62:
.LBB212:
.LBI212:
	.loc 2 1082 55 view .LVU276
.LBB213:
	.loc 2 1084 2 view .LVU277
	.loc 2 1085 2 view .LVU278
	.loc 2 1084 92 is_stmt 0 view .LVU279
	ldr	r4, .L47
	.loc 2 1085 17 view .LVU280
	lsls	r5, r3, #2
	lsls	r6, r4, #5
.LBE213:
.LBE212:
	.loc 1 193 5 view .LVU281
	ldr	r5, [r6, r5]
	cmp	r5, #0
	beq	.L45
	.loc 1 205 2 is_stmt 1 view .LVU282
	.loc 1 205 21 is_stmt 0 view .LVU283
	movs	r6, #210
	lsls	r6, r6, #2
	mov	ip, r6
	movs	r6, #0
	ldr	r5, .L47+4
	adds	r5, r4, r5
	adds	r3, r5, r3
.LVL63:
	.loc 1 205 21 view .LVU284
	add	r3, r3, ip
	ldrsb	r6, [r3, r6]
	.loc 1 205 5 view .LVU285
	cmp	r6, r1
	beq	.L42
	.loc 1 207 52 is_stmt 1 view .LVU286
	.loc 1 208 3 view .LVU287
	.syntax divided
@ 208 "c:/devel/yard-ice/thinkos/sdk/libthinkos-krn/thinkos_mutex.c" 1
	nop
bkpt #138

@ 0 "" 2
	.loc 1 209 3 view .LVU288
	.loc 1 209 10 is_stmt 0 view .LVU289
	.thumb
	.syntax unified
	movs	r3, #6
	rsbs	r3, r3, #0
	str	r3, [r0]
	.loc 1 210 3 is_stmt 1 view .LVU290
.LVL64:
.L38:
	.loc 1 232 1 is_stmt 0 view .LVU291
	@ sp needed
	pop	{r2, r3}
	mov	r8, r2
	mov	r9, r3
	pop	{r4, r5, r6, r7, pc}
.LVL65:
.L45:
	.loc 1 194 3 is_stmt 1 view .LVU292
	.loc 1 195 3 view .LVU293
	.syntax divided
@ 195 "c:/devel/yard-ice/thinkos/sdk/libthinkos-krn/thinkos_mutex.c" 1
	nop
bkpt #137

@ 0 "" 2
	.loc 1 196 3 view .LVU294
	.loc 1 196 10 is_stmt 0 view .LVU295
	.thumb
	.syntax unified
	movs	r3, #3
.LVL66:
	.loc 1 196 10 view .LVU296
	rsbs	r3, r3, #0
	str	r3, [r0]
	.loc 1 197 3 is_stmt 1 view .LVU297
	b	.L38
.LVL67:
.L44:
	.loc 1 187 3 view .LVU298
	.loc 1 188 3 view .LVU299
	.syntax divided
@ 188 "c:/devel/yard-ice/thinkos/sdk/libthinkos-krn/thinkos_mutex.c" 1
	nop
bkpt #136

@ 0 "" 2
	.loc 1 189 3 view .LVU300
	.loc 1 189 10 is_stmt 0 view .LVU301
	.thumb
	.syntax unified
	movs	r3, #3
.LVL68:
	.loc 1 189 10 view .LVU302
	rsbs	r3, r3, #0
	str	r3, [r0]
	.loc 1 190 3 is_stmt 1 view .LVU303
	b	.L38
.L42:
	.loc 1 214 2 view .LVU304
	.loc 1 214 9 is_stmt 0 view .LVU305
	movs	r6, #0
.LBB214:
.LBB215:
	.loc 3 822 9 view .LVU306
	adds	r2, r2, #74
.LVL69:
	.loc 3 822 9 view .LVU307
	lsls	r2, r2, #2
.LBE215:
.LBE214:
	.loc 1 214 9 view .LVU308
	str	r6, [r0]
.LVL70:
	.loc 1 216 2 is_stmt 1 view .LVU309
	.loc 1 218 2 view .LVU310
.LBB221:
.LBI214:
	.loc 3 820 1 view .LVU311
.LBB220:
	.loc 3 822 2 view .LVU312
.LBB216:
.LBI216:
	.loc 2 1225 55 view .LVU313
.LBB217:
	.loc 2 1226 2 view .LVU314
	.loc 2 1227 2 view .LVU315
	ldr	r1, [r2, r5]
.LVL71:
	.loc 2 1227 2 is_stmt 0 view .LVU316
	.syntax divided
@ 1227 "C:/devel/yard-ice/thinkos/sdk/include/arch/cortex-m3.h" 1
	rbit r1, r1

@ 0 "" 2
.LVL72:
	.loc 2 1228 2 is_stmt 1 view .LVU317
	.loc 2 1228 2 is_stmt 0 view .LVU318
	.thumb
	.syntax unified
.LBE217:
.LBE216:
.LBB218:
.LBI218:
	.loc 2 1218 55 is_stmt 1 view .LVU319
.LBB219:
	.loc 2 1219 2 view .LVU320
	.loc 2 1220 2 view .LVU321
	.syntax divided
@ 1220 "C:/devel/yard-ice/thinkos/sdk/include/arch/cortex-m3.h" 1
	clz r1, r1

@ 0 "" 2
.LVL73:
	.loc 2 1221 2 view .LVU322
	.loc 2 1221 2 is_stmt 0 view .LVU323
	.thumb
	.syntax unified
.LBE219:
.LBE218:
.LBE220:
.LBE221:
	.loc 1 218 5 view .LVU324
	cmp	r1, #32
	beq	.L46
	.loc 1 225 3 is_stmt 1 view .LVU325
.LBB222:
.LBB223:
	.loc 3 758 12 is_stmt 0 view .LVU326
	movs	r0, #128
.LVL74:
	.loc 3 758 12 view .LVU327
	mov	r9, r0
.LBE223:
.LBE222:
.LBB227:
.LBB228:
.LBB229:
.LBB230:
	.loc 2 1092 16 view .LVU328
	subs	r0, r0, #127
	mov	ip, r0
.LBE230:
.LBE229:
.LBB236:
.LBB237:
	.loc 2 1091 92 view .LVU329
	ldr	r0, .L47+8
.LBE237:
.LBE236:
.LBB242:
.LBB231:
	.loc 2 1092 10 view .LVU330
	lsls	r7, r1, #2
.LBE231:
.LBE242:
.LBB243:
.LBB238:
	.loc 2 1091 92 view .LVU331
	adds	r0, r4, r0
	adds	r2, r2, r0
.LBE238:
.LBE243:
	.loc 3 892 25 view .LVU332
	movs	r0, r1
	adds	r0, r0, #65
	adds	r0, r0, #255
	lsls	r0, r0, #1
.LBE228:
.LBE227:
	.loc 1 225 26 view .LVU333
	strb	r1, [r3]
.LBB262:
.LBB259:
	.loc 3 892 25 view .LVU334
	adds	r0, r5, r0
.LBB244:
.LBB245:
	.loc 2 1091 92 view .LVU335
	ldr	r1, .L47+12
.LVL75:
	.loc 2 1091 92 view .LVU336
.LBE245:
.LBE244:
	.loc 3 888 25 view .LVU337
	ldr	r5, [r7, r5]
.LBB249:
.LBB232:
	.loc 2 1091 92 view .LVU338
	ldr	r3, .L47+16
.LBE232:
.LBE249:
	.loc 3 888 25 view .LVU339
	mov	r8, r5
.LBE259:
.LBE262:
.LBB263:
.LBB224:
	.loc 3 758 12 view .LVU340
	mov	r5, r9
.LBE224:
.LBE263:
.LBB264:
.LBB260:
.LBB250:
.LBB246:
	.loc 2 1091 92 view .LVU341
	mov	r9, r1
.LBE246:
.LBE250:
.LBB251:
.LBB233:
	.loc 2 1092 16 view .LVU342
	mov	r1, ip
	.loc 2 1091 92 view .LVU343
	adds	r3, r4, r3
.LBE233:
.LBE251:
.LBB252:
.LBB239:
	.loc 2 1092 16 view .LVU344
	lsls	r2, r2, #5
.LBE239:
.LBE252:
.LBB253:
.LBB234:
	lsls	r3, r3, #5
	str	r1, [r3, r7]
.LBE234:
.LBE253:
.LBB254:
.LBB240:
	str	r6, [r2, r7]
.LBE240:
.LBE254:
	.loc 3 888 25 view .LVU345
	mov	r2, r8
.LBB255:
.LBB247:
	.loc 2 1091 92 view .LVU346
	add	r4, r4, r9
.LBE247:
.LBE255:
.LBE260:
.LBE264:
.LBB265:
.LBB225:
	.loc 3 758 12 view .LVU347
	ldr	r3, .L47+20
	lsls	r5, r5, #21
.LBE225:
.LBE265:
	.loc 1 226 3 is_stmt 1 view .LVU348
	.loc 1 228 3 view .LVU349
.LVL76:
.LBB266:
.LBI227:
	.loc 3 879 1 view .LVU350
.LBB261:
	.loc 3 881 2 view .LVU351
.LBB256:
.LBI229:
	.loc 2 1089 51 view .LVU352
.LBB235:
	.loc 2 1091 2 view .LVU353
	.loc 2 1092 2 view .LVU354
	.loc 2 1092 2 is_stmt 0 view .LVU355
.LBE235:
.LBE256:
	.loc 3 883 2 is_stmt 1 view .LVU356
.LBB257:
.LBI236:
	.loc 2 1089 51 view .LVU357
.LBB241:
	.loc 2 1091 2 view .LVU358
	.loc 2 1092 2 view .LVU359
	.loc 2 1092 2 is_stmt 0 view .LVU360
.LBE241:
.LBE257:
	.loc 3 886 2 is_stmt 1 view .LVU361
.LBB258:
.LBI244:
	.loc 2 1089 51 view .LVU362
.LBB248:
	.loc 2 1091 2 view .LVU363
	.loc 2 1092 2 view .LVU364
	.loc 2 1092 16 is_stmt 0 view .LVU365
	lsls	r4, r4, #5
	str	r6, [r4, r7]
.LVL77:
	.loc 2 1092 16 view .LVU366
.LBE248:
.LBE258:
	.loc 3 888 2 is_stmt 1 view .LVU367
	.loc 3 888 25 is_stmt 0 view .LVU368
	str	r6, [r2, #40]
	.loc 3 892 2 is_stmt 1 view .LVU369
	.loc 3 892 25 is_stmt 0 view .LVU370
	strh	r6, [r0, #4]
	.loc 3 892 25 view .LVU371
.LBE261:
.LBE266:
	.loc 1 230 3 is_stmt 1 view .LVU372
.LBB267:
.LBI222:
	.loc 3 755 51 view .LVU373
.LBB226:
	.loc 3 756 2 view .LVU374
.LVL78:
	.loc 3 758 2 view .LVU375
	.loc 3 758 12 is_stmt 0 view .LVU376
	str	r5, [r3, #4]
	.loc 3 759 2 is_stmt 1 view .LVU377
	.syntax divided
@ 759 "C:/devel/yard-ice/thinkos/sdk/include/thinkos/kernel.h" 1
	dsb

@ 0 "" 2
	.thumb
	.syntax unified
	b	.L38
.LVL79:
.L46:
	.loc 3 759 2 is_stmt 0 view .LVU378
.LBE226:
.LBE267:
	.loc 1 221 3 is_stmt 1 view .LVU379
	.loc 1 222 3 view .LVU380
	.loc 1 222 26 is_stmt 0 view .LVU381
	movs	r2, #255
	strb	r2, [r3]
	b	.L38
.L48:
	.align	2
.L47:
	.word	thinkos_rt+17826700
	.word	-17826700
	.word	-908
	.word	-608
	.word	-612
	.word	-536810240
	.cfi_endproc
.LFE174:
	.size	thinkos_mutex_unlock_svc, .-thinkos_mutex_unlock_svc
	.text
.Letext0:
	.file 4 "C:/devel/yard-ice/thinkos/sdk/include/stdint.h"
	.file 5 "C:/devel/yard-ice/thinkos/sdk/include/thinkos/profile.h"
	.file 6 "C:/devel/yard-ice/thinkos/sdk/include/thinkos/error.h"
	.file 7 "C:/devel/yard-ice/thinkos/sdk/include/thinkos.h"
	.file 8 "C:/devel/yard-ice/thinkos/sdk/include/stdio.h"